(dp0
S'BWBR0004447'
p1
S'Wet opneming buitenlandse kinderen ter adoptie (Wobka)'
p2
sS'BWBV0004316'
p3
S'Overeenkomst waarbij een associatie tot stand wordt gebracht tussende Europese Gemeenschap en Turkije, Ankara, 12-09-1963'
p4
sS'BWBR0027992'
p5
S'Besluit modern migratiebeleid'
p6
sS'BWBR0011468'
p7
S'Wet bescherming persoonsgegevens (Wbp)'
p8
sS'BWBR0002638'
p9
S'Wet minimumloon en minimumvakantiebijslag'
p10
sS'BWBR0011543'
p11
S'Vreemdelingencirculaire Nederlanderschap in relatie tot verblijfsrecht'
p12
sS'BWBR0007149'
p13
S'Wet arbeid vreemdelingen'
p14
sS'BWBR0009544'
p15
S'Wet inburgering nieuwkomers (WIN)'
p16
sS'BWBR0027930'
p17
S'Wet modern migratiebeleid'
p18
sS'BWBR0012002'
p19
S'Voorschrift Vreemdelingen 2000'
p20
sS'BWBR0005537'
p21
S'Algemene wet bestuursrecht'
p22
sS'BWBR0020611'
p23
S'Wet inburgering'
p24
sS'BWBV0001342'
p25
S'Haags Adoptieverdrag (HAV)'
p26
sS'BWBR0015330'
p27
S'Wet conflictenrecht adoptie'
p28
sS'BWBR0029247'
p29
S'Circulaire legalisatie en verificatie van buitenlandse bewijsstukken betreffende de staat van personen'
p30
sS'BWBR0005252'
p31
S'Wet openbaarheid bestuur (Wob)'
p32
sS'BWBV0001000'
p33
S'EVRM'
p34
sS'BWBR0017614'
p35
S'Wet bestuurlijke boete arbeid vreemdelingen'
p36
sS'BWBR0012287'
p37
S'Vreemdelingencirculaire 2000 (A)'
p38
sS'BWBV0004625'
p39
S'Verdrag betreffende de gelijkheid van behandelingen van eigen onderdanen en vreemdelingen met betrekking tot de sociale zekerheid, Geneve, 28-06-1962'
p40
sS'BWBR0011825'
p41
S'Vreemdelingenbesluit'
p42
sS'BWBR0012288'
p43
S'Vreemdelingencirculaire 2000 (C)'
p44
sS'BWBR0012289'
p45
S'Vreemdelingencirculaire 2000(B)'
p46
sS'BWBR0007523'
p47
S'Besluit uitvoering Wet arbeid vreemdelingen (Buwav)'
p48
sS'BWBR0011823'
p49
S'Vreemdelingenwet 2000'
p50
s.