(dp0
S'BWBV0004625'
p1
S'Verdrag betreffende de gelijkheid van behandelingen van eigen onderdanen en vreemdelingen met betrekking tot de sociale zekerheid, Geneve, 28-06-1962'
p2
sS'BWBR0027930'
p3
S'Wet modern migratiebeleid'
p4
sS'BWBR0027992'
p5
S'Besluit modern migratiebeleid'
p6
sS'BWBR0011825'
p7
S'Vreemdelingenbesluit'
p8
sS'BWBR0012289'
p9
S'Vreemdelingencirculaire 2000(B)'
p10
sS'BWBR0012002'
p11
S'Voorschrift Vreemdelingen 2000'
p12
sS'BWBR0011823'
p13
S'Vreemdelingenwet 2000'
p14
s.